# SymbolsHelper-Confirmed: 1.3.0 alpha amd64 arm64 armel armhf hppa hurd-i386 i386 kfreebsd-amd64 kfreebsd-i386 m68k mips mips64el mipsel powerpc powerpcspe ppc64 ppc64el s390x sh4 sparc64 x32
libkmlconvenience.so.1 #PACKAGE# #MINVER#
* Build-Depends-Package: libkml-dev
 _ZN14kmlconvenience10CreateWaitEd@Base 1.3.0~r864
 _ZN14kmlconvenience10HttpClient10FindHeaderERKNSt7__cxx1112basic_stringIcSt11char_traitsIcESaIcEEERKSt6vectorISt4pairIS6_S6_ESaISB_EEPS6_@Base 1.3.0~r864
 _ZN14kmlconvenience10HttpClient10PushHeaderERKNSt7__cxx1112basic_stringIcSt11char_traitsIcESaIcEEES8_PSt6vectorISt4pairIS6_S6_ESaISB_EE@Base 1.3.0~r864
 _ZN14kmlconvenience10HttpClient12FormatHeaderERKSt4pairINSt7__cxx1112basic_stringIcSt11char_traitsIcESaIcEEES7_E@Base 1.3.0~r864
 _ZN14kmlconvenience10HttpClient13AppendHeadersERKSt6vectorISt4pairINSt7__cxx1112basic_stringIcSt11char_traitsIcESaIcEEES8_ESaIS9_EEPSB_@Base 1.3.0~r864
 _ZN14kmlconvenience10HttpClient5LoginERKNSt7__cxx1112basic_stringIcSt11char_traitsIcESaIcEEES8_S8_@Base 1.3.0~r864
 _ZN14kmlconvenience10HttpClient9AddHeaderERKNSt7__cxx1112basic_stringIcSt11char_traitsIcESaIcEEES8_@Base 1.3.0~r864
 _ZN14kmlconvenience10HttpClientC1ERKNSt7__cxx1112basic_stringIcSt11char_traitsIcESaIcEEE@Base 1.3.0~r864
 _ZN14kmlconvenience10HttpClientC2ERKNSt7__cxx1112basic_stringIcSt11char_traitsIcESaIcEEE@Base 1.3.0~r864
 _ZN14kmlconvenience10HttpClientD0Ev@Base 1.3.0~r864
 _ZN14kmlconvenience10HttpClientD1Ev@Base 1.3.0~r864
 _ZN14kmlconvenience10HttpClientD2Ev@Base 1.3.0~r864
 _ZN14kmlconvenience10HttpMethod17kHttpMethodStringE@Base 1.3.0~r864
 _ZN14kmlconvenience11CreateFlyToERKN5boost13intrusive_ptrIN6kmldom12AbstractViewEEEd@Base 1.3.0~r864
 (arch=!amd64 !sparc64)_ZN14kmlconvenience11FeatureList11RegionSplitERKN5boost13intrusive_ptrIN6kmldom6RegionEEEjPS0_@Base 1.3.0
 (arch=alpha amd64 arm64 kfreebsd-amd64 mips64el ppc64 ppc64el s390x sparc64)_ZN14kmlconvenience11FeatureList11RegionSplitERKN5boost13intrusive_ptrIN6kmldom6RegionEEEmPS0_@Base 1.3.0~rc2
 _ZN14kmlconvenience11FeatureList4SortEv@Base 1.3.0~r864
 _ZN14kmlconvenience11FeatureList8PushBackERKN5boost13intrusive_ptrIN6kmldom7FeatureEEE@Base 1.3.0~r864
 (arch=!amd64 !sparc64)_ZN14kmlconvenience11FeatureList9BboxSplitERKN9kmlengine4BboxEjPS0_@Base 1.3.0
 (arch=alpha amd64 arm64 kfreebsd-amd64 mips64el ppc64 ppc64el s390x sparc64)_ZN14kmlconvenience11FeatureList9BboxSplitERKN9kmlengine4BboxEmPS0_@Base 1.3.0~rc2
 _ZN14kmlconvenience12CreateCameraEddddddi@Base 1.3.0~r864
 _ZN14kmlconvenience12CreateLookAtEddddddi@Base 1.3.0~r864
 _ZN14kmlconvenience13GoogleDocList16get_metafeed_uriEv@Base 1.3.0~r864
 _ZN14kmlconvenience13GoogleDocList16get_service_nameEv@Base 1.3.0~r864
 _ZN14kmlconvenience13GoogleDocList17UploadSpreadsheetERKNSt7__cxx1112basic_stringIcSt11char_traitsIcESaIcEEES8_PS6_@Base 1.3.0~r864
 _ZN14kmlconvenience13GoogleDocList6CreateEPNS_10HttpClientE@Base 1.3.0~r864
 _ZN14kmlconvenience13GoogleDocListC1Ev@Base 1.3.0~r864
 _ZN14kmlconvenience13GoogleDocListC2Ev@Base 1.3.0~r864
 _ZN14kmlconvenience13GoogleDocListD1Ev@Base 1.3.0~r864
 _ZN14kmlconvenience13GoogleDocListD2Ev@Base 1.3.0~r864
 _ZN14kmlconvenience13KmzCheckLinksERKN9kmlengine7KmzFileEPSt6vectorINSt7__cxx1112basic_stringIcSt11char_traitsIcESaIcEEESaISA_EE@Base 1.3.0~r864
 _ZN14kmlconvenience14CreateRegion2dEdddddd@Base 1.3.0~r864
 _ZN14kmlconvenience14GoogleMapsData10AddFeatureERKNSt7__cxx1112basic_stringIcSt11char_traitsIcESaIcEEERKN5boost13intrusive_ptrIN6kmldom7FeatureEEEPS6_@Base 1.3.0~r864
 _ZN14kmlconvenience14GoogleMapsData13GetSearchFeedERKNSt7__cxx1112basic_stringIcSt11char_traitsIcESaIcEEES8_PS6_@Base 1.3.0~r864
 _ZN14kmlconvenience14GoogleMapsData14PostPlacemarksERKN5boost13intrusive_ptrIN6kmldom7FeatureEEERKNSt7__cxx1112basic_stringIcSt11char_traitsIcESaIcEEE@Base 1.3.0~r864
 _ZN14kmlconvenience14GoogleMapsData15GetEntryFeatureERKN5boost13intrusive_ptrIN6kmldom9AtomEntryEEE@Base 1.3.0~r864
 _ZN14kmlconvenience14GoogleMapsData15SearchMapByBboxERKN5boost13intrusive_ptrIN6kmldom9AtomEntryEEERKN9kmlengine4BboxE@Base 1.3.0~r864
 _ZN14kmlconvenience14GoogleMapsData16GetSearchFeedUriERKN5boost13intrusive_ptrIN6kmldom9AtomEntryEEEPNSt7__cxx1112basic_stringIcSt11char_traitsIcESaIcEEE@Base 1.3.0~r864
 _ZN14kmlconvenience14GoogleMapsData16get_metafeed_uriEv@Base 1.3.0~r864
 _ZN14kmlconvenience14GoogleMapsData16get_service_nameEv@Base 1.3.0~r864
 _ZN14kmlconvenience14GoogleMapsData17GetFeatureFeedUriERKN5boost13intrusive_ptrIN6kmldom9AtomEntryEEEPNSt7__cxx1112basic_stringIcSt11char_traitsIcESaIcEEE@Base 1.3.0~r864
 _ZN14kmlconvenience14GoogleMapsData18AppendBoxParameterEddddPNSt7__cxx1112basic_stringIcSt11char_traitsIcESaIcEEE@Base 1.3.0~r864
 _ZN14kmlconvenience14GoogleMapsData26AppendBoxParameterFromBboxERKN9kmlengine4BboxEPNSt7__cxx1112basic_stringIcSt11char_traitsIcESaIcEEE@Base 1.3.0~r864
 _ZN14kmlconvenience14GoogleMapsData27CreateDocumentOfMapFeaturesERKN5boost13intrusive_ptrIN6kmldom8AtomFeedEEE@Base 1.3.0~r864
 _ZN14kmlconvenience14GoogleMapsData6CreateEPNS_10HttpClientE@Base 1.3.0~r864
 _ZN14kmlconvenience14GoogleMapsData7PostCsvERKNSt7__cxx1112basic_stringIcSt11char_traitsIcESaIcEEES8_PS6_@Base 1.3.0~r864
 _ZN14kmlconvenience14GoogleMapsData7PostKmlERKNSt7__cxx1112basic_stringIcSt11char_traitsIcESaIcEEES8_@Base 1.3.0~r864
 _ZN14kmlconvenience14GoogleMapsData9CreateMapERKNSt7__cxx1112basic_stringIcSt11char_traitsIcESaIcEEES8_PS6_@Base 1.3.0~r864
 _ZN14kmlconvenience14GoogleMapsData9GetKmlUriERKN5boost13intrusive_ptrIN6kmldom9AtomEntryEEEPNSt7__cxx1112basic_stringIcSt11char_traitsIcESaIcEEE@Base 1.3.0~r864
 _ZN14kmlconvenience14GoogleMapsData9GetMapKmlERKN5boost13intrusive_ptrIN6kmldom8AtomFeedEEENS2_INS3_9ContainerEEE@Base 1.3.0~r864
 _ZN14kmlconvenience14GoogleMapsData9PostMediaERKNSt7__cxx1112basic_stringIcSt11char_traitsIcESaIcEEES8_S8_PS6_@Base 1.3.0~r864
 _ZN14kmlconvenience14GoogleMapsDataC1Ev@Base 1.3.0~r864
 _ZN14kmlconvenience14GoogleMapsDataC2Ev@Base 1.3.0~r864
 _ZN14kmlconvenience14GoogleMapsDataD1Ev@Base 1.3.0~r864
 _ZN14kmlconvenience14GoogleMapsDataD2Ev@Base 1.3.0~r864
 _ZN14kmlconvenience15GetFeatureScoreEN5boost13intrusive_ptrIN6kmldom7FeatureEEE@Base 1.3.0~r864
 _ZN14kmlconvenience15GooglePicasaWeb16get_metafeed_uriEv@Base 1.3.0~r864
 _ZN14kmlconvenience15GooglePicasaWeb16get_service_nameEv@Base 1.3.0~r864
 _ZN14kmlconvenience15GooglePicasaWeb6CreateEPNS_10HttpClientE@Base 1.3.0~r864
 _ZN14kmlconvenience15GooglePicasaWebC1Ev@Base 1.3.0~r864
 _ZN14kmlconvenience15GooglePicasaWebC2Ev@Base 1.3.0~r864
 _ZN14kmlconvenience15GooglePicasaWebD1Ev@Base 1.3.0~r864
 _ZN14kmlconvenience15GooglePicasaWebD2Ev@Base 1.3.0~r864
 _ZN14kmlconvenience15SetFeatureScoreERKNSt7__cxx1112basic_stringIcSt11char_traitsIcESaIcEEEN5boost13intrusive_ptrIN6kmldom7FeatureEEE@Base 1.3.0~r864
 _ZN14kmlconvenience16CsvParserHandler10HandleLineEiNS_15CsvParserStatusEN5boost13intrusive_ptrIN6kmldom9PlacemarkEEE@Base 1.3.0~r864
 _ZN14kmlconvenience17CreatePointLatLonEdd@Base 1.3.0~r864
 _ZN14kmlconvenience18GoogleSpreadsheets16get_metafeed_uriEv@Base 1.3.0~r864
 _ZN14kmlconvenience18GoogleSpreadsheets16get_service_nameEv@Base 1.3.0~r864
 _ZN14kmlconvenience18GoogleSpreadsheets19DownloadSpreadsheetERKN5boost13intrusive_ptrIN6kmldom9AtomEntryEEERKNSt7__cxx1112basic_stringIcSt11char_traitsIcESaIcEEEPSD_@Base 1.3.0~r864
 _ZN14kmlconvenience18GoogleSpreadsheets6CreateEPNS_10HttpClientE@Base 1.3.0~r864
 _ZN14kmlconvenience18GoogleSpreadsheetsC1Ev@Base 1.3.0~r864
 _ZN14kmlconvenience18GoogleSpreadsheetsC2Ev@Base 1.3.0~r864
 _ZN14kmlconvenience18GoogleSpreadsheetsD1Ev@Base 1.3.0~r864
 _ZN14kmlconvenience18GoogleSpreadsheetsD2Ev@Base 1.3.0~r864
 _ZN14kmlconvenience19CreateDataNameValueERKNSt7__cxx1112basic_stringIcSt11char_traitsIcESaIcEEES7_@Base 1.3.0~r864
 _ZN14kmlconvenience19CreatePointFromVec3ERKN7kmlbase4Vec3E@Base 1.3.0~r864
 _ZN14kmlconvenience19SimplifyCoordinatesERKN5boost13intrusive_ptrIN6kmldom11CoordinatesEEES4_d@Base 1.3.0~r864
 _ZN14kmlconvenience20AddExtendedDataValueERKNSt7__cxx1112basic_stringIcSt11char_traitsIcESaIcEEES7_N5boost13intrusive_ptrIN6kmldom7FeatureEEE@Base 1.3.0~r864
 _ZN14kmlconvenience20CreatePointPlacemarkERKNSt7__cxx1112basic_stringIcSt11char_traitsIcESaIcEEEdd@Base 1.3.0~r864
 _ZN14kmlconvenience20GetExtendedDataValueERKN5boost13intrusive_ptrIN6kmldom7FeatureEEERKNSt7__cxx1112basic_stringIcSt11char_traitsIcESaIcEEEPSC_@Base 1.3.0~r864
 _ZN14kmlconvenience20SetExtendedDataValueERKNSt7__cxx1112basic_stringIcSt11char_traitsIcESaIcEEES7_N5boost13intrusive_ptrIN6kmldom7FeatureEEE@Base 1.3.0~r864
 _ZN14kmlconvenience21CreateFlyToForFeatureERKN5boost13intrusive_ptrIN6kmldom7FeatureEEEd@Base 1.3.0~r864
 (arch=!amd64 !sparc64)_ZN14kmlconvenience23CreateCoordinatesCircleEdddj@Base 1.3.0
 (arch=alpha amd64 arm64 kfreebsd-amd64 mips64el ppc64 ppc64el s390x sparc64)_ZN14kmlconvenience23CreateCoordinatesCircleEdddm@Base 1.3.0~rc2
 _ZN14kmlconvenience25CreatePointFromLatLonAttsEPPKc@Base 1.3.0~r864
 _ZN14kmlconvenience27CreateBasicPolygonPlacemarkERKN5boost13intrusive_ptrIN6kmldom10LinearRingEEE@Base 1.3.0~r864
 _ZN14kmlconvenience31CreateAnimatedUpdateChangePointERKNSt7__cxx1112basic_stringIcSt11char_traitsIcESaIcEEERKN7kmlbase4Vec3Ed@Base 1.3.0~r864
 _ZN14kmlconvenience33CreatePointPlacemarkWithTimeStampERKN5boost13intrusive_ptrIN6kmldom5PointEEERKN7kmlbase8DateTimeEPKc@Base 1.3.0~r864
 _ZN14kmlconvenience7CsvFile12ParseCsvFileEPKc@Base 1.3.0~r864
 _ZN14kmlconvenience7CsvFile12ParseCsvLineERKNSt7__cxx1112basic_stringIcSt11char_traitsIcESaIcEEE@Base 1.3.0~r864
 _ZN14kmlconvenience8AtomUtil10FindRelUrlERKN6kmldom10AtomCommonERKNSt7__cxx1112basic_stringIcSt11char_traitsIcESaIcEEEPSA_@Base 1.3.0~r864
 _ZN14kmlconvenience8AtomUtil11GetNextFeedERKN5boost13intrusive_ptrIN6kmldom8AtomFeedEEERKNS_10HttpClientE@Base 1.3.0~r864
 _ZN14kmlconvenience8AtomUtil11LinkIsOfRelERKN5boost13intrusive_ptrIN6kmldom8AtomLinkEEERKNSt7__cxx1112basic_stringIcSt11char_traitsIcESaIcEEE@Base 1.3.0~r864
 _ZN14kmlconvenience8AtomUtil13GetContentSrcERKN5boost13intrusive_ptrIN6kmldom9AtomEntryEEEPNSt7__cxx1112basic_stringIcSt11char_traitsIcESaIcEEE@Base 1.3.0~r864
 _ZN14kmlconvenience8AtomUtil15CreateBasicLinkERKNSt7__cxx1112basic_stringIcSt11char_traitsIcESaIcEEES8_S8_@Base 1.3.0~r864
 _ZN14kmlconvenience8AtomUtil15GetAndParseFeedERKNSt7__cxx1112basic_stringIcSt11char_traitsIcESaIcEEERKNS_10HttpClientE@Base 1.3.0~r864
 _ZN14kmlconvenience8AtomUtil15GetEntryFeatureERKN5boost13intrusive_ptrIN6kmldom9AtomEntryEEE@Base 1.3.0~r864
 _ZN14kmlconvenience8AtomUtil15GetFeedFeaturesERKN5boost13intrusive_ptrIN6kmldom8AtomFeedEEENS2_INS3_9ContainerEEE@Base 1.3.0~r864
 _ZN14kmlconvenience8AtomUtil15GetGdResourceIdERKN5boost13intrusive_ptrIN6kmldom9AtomEntryEEEPNSt7__cxx1112basic_stringIcSt11char_traitsIcESaIcEEE@Base 1.3.0~r864
 _ZN14kmlconvenience8AtomUtil16CreateBasicEntryERKNSt7__cxx1112basic_stringIcSt11char_traitsIcESaIcEEES8_@Base 1.3.0~r864
 _ZN14kmlconvenience8AtomUtil16FindEntryByTitleERKN5boost13intrusive_ptrIN6kmldom8AtomFeedEEERKNSt7__cxx1112basic_stringIcSt11char_traitsIcESaIcEEE@Base 1.3.0~r864
 _ZN14kmlconvenience8AtomUtil17CloneEntryFeatureERKN5boost13intrusive_ptrIN6kmldom9AtomEntryEEE@Base 1.3.0~r864
 _ZN14kmlconvenience8AtomUtil20FindCategoryBySchemeERKN6kmldom10AtomCommonERKNSt7__cxx1112basic_stringIcSt11char_traitsIcESaIcEEE@Base 1.3.0~r864
 _ZN14kmlconvenience8AtomUtil21CreateEntryForFeatureERKN5boost13intrusive_ptrIN6kmldom7FeatureEEE@Base 1.3.0~r864
 _ZN14kmlconvenience8AtomUtil8FindLinkERKN6kmldom10AtomCommonERKNSt7__cxx1112basic_stringIcSt11char_traitsIcESaIcEEESC_@Base 1.3.0~r864
 _ZN14kmlconvenience9CsvParser12ParseCsvDataEv@Base 1.3.0~r864
 _ZN14kmlconvenience9CsvParser8ParseCsvEPN7kmlbase11CsvSplitterEPNS_16CsvParserHandlerE@Base 1.3.0~r864
 _ZN14kmlconvenience9CsvParser9SetSchemaERKSt6vectorINSt7__cxx1112basic_stringIcSt11char_traitsIcESaIcEEESaIS7_EE@Base 1.3.0~r864
 _ZN14kmlconvenience9CsvParserC1EPN7kmlbase11CsvSplitterEPNS_16CsvParserHandlerE@Base 1.3.0~r864
 _ZN14kmlconvenience9CsvParserC2EPN7kmlbase11CsvSplitterEPNS_16CsvParserHandlerE@Base 1.3.0~r864
 (optional=templinst|arch=amd64)_ZN5boost10scoped_ptrIN14kmlconvenience10HttpClientEED1Ev@Base 1.3.0
 (optional=templinst|arch=amd64)_ZN5boost10scoped_ptrIN14kmlconvenience10HttpClientEED2Ev@Base 1.3.0
 (arch=!amd64)_ZN7kmlbase10NetFetcherD0Ev@Base 1.3.0
 (arch=!amd64)_ZN7kmlbase10NetFetcherD1Ev@Base 1.3.0
 (arch=!amd64)_ZN7kmlbase10NetFetcherD2Ev@Base 1.3.0
 (optional=templinst|arch=amd64)_ZN7kmlbase8ToStringIdEENSt7__cxx1112basic_stringIcSt11char_traitsIcESaIcEEET_@Base 1.3.0
 (arch=amd64)_ZN9kmlengine4HrefD1Ev@Base 1.3.0
 (arch=amd64)_ZN9kmlengine4HrefD2Ev@Base 1.3.0
 _ZNK14kmlconvenience10HttpClient11SendRequestENS_14HttpMethodEnumERKNSt7__cxx1112basic_stringIcSt11char_traitsIcESaIcEEEPKSt6vectorISt4pairIS7_S7_ESaISC_EEPS8_PS7_@Base 1.3.0~r864
 _ZNK14kmlconvenience10HttpClient8FetchUrlERKNSt7__cxx1112basic_stringIcSt11char_traitsIcESaIcEEEPS6_@Base 1.3.0~r864
 _ZNK14kmlconvenience11FeatureList18ComputeBoundingBoxEPN9kmlengine4BboxE@Base 1.3.0~r864
 _ZNK14kmlconvenience11FeatureList4SaveEN5boost13intrusive_ptrIN6kmldom9ContainerEEE@Base 1.3.0~r864
 _ZNK14kmlconvenience11FeatureList4SizeEv@Base 1.3.0~r864
 _ZNK14kmlconvenience13GoogleDocList11GetMetaFeedEv@Base 1.3.0~r864
 _ZNK14kmlconvenience13GoogleDocList14GetMetaFeedXmlEPNSt7__cxx1112basic_stringIcSt11char_traitsIcESaIcEEE@Base 1.3.0~r864
 _ZNK14kmlconvenience14GoogleMapsData11GetMetaFeedEv@Base 1.3.0~r864
 _ZNK14kmlconvenience14GoogleMapsData14GetMetaFeedXmlEPNSt7__cxx1112basic_stringIcSt11char_traitsIcESaIcEEE@Base 1.3.0~r864
 _ZNK14kmlconvenience14GoogleMapsData15get_http_clientEv@Base 1.3.0~r864
 _ZNK14kmlconvenience14GoogleMapsData17GetFeatureFeedXmlERKNSt7__cxx1112basic_stringIcSt11char_traitsIcESaIcEEEPS6_@Base 1.3.0~r864
 _ZNK14kmlconvenience14GoogleMapsData19GetFeatureFeedByUriERKNSt7__cxx1112basic_stringIcSt11char_traitsIcESaIcEEE@Base 1.3.0~r864
 _ZNK14kmlconvenience14GoogleMapsData9get_scopeB5cxx11Ev@Base 1.3.0~r864
 _ZNK14kmlconvenience15GooglePicasaWeb11GetMetaFeedEv@Base 1.3.0~r864
 _ZNK14kmlconvenience15GooglePicasaWeb14GetMetaFeedXmlEPNSt7__cxx1112basic_stringIcSt11char_traitsIcESaIcEEE@Base 1.3.0~r864
 _ZNK14kmlconvenience18GoogleSpreadsheets11GetMetaFeedEv@Base 1.3.0~r864
 _ZNK14kmlconvenience18GoogleSpreadsheets14GetMetaFeedXmlEPNSt7__cxx1112basic_stringIcSt11char_traitsIcESaIcEEE@Base 1.3.0~r864
 _ZNK14kmlconvenience18GoogleSpreadsheets9get_scopeB5cxx11Ev@Base 1.3.0~r864
 _ZNK14kmlconvenience9CsvParser18CsvLineToPlacemarkERSt6vectorINSt7__cxx1112basic_stringIcSt11char_traitsIcESaIcEEESaIS7_EEN5boost13intrusive_ptrIN6kmldom9PlacemarkEEE@Base 1.3.0~r864
 (arch=!amd64)_ZNK7kmlbase10NetFetcher8FetchUrlERKNSt7__cxx1112basic_stringIcSt11char_traitsIcESaIcEEEPS6_@Base 1.3.0
 (optional=templinst)_ZNKSt5ctypeIcE8do_widenEc@Base 1.3.0~r864
 (optional=templinst|arch=!amd64)_ZNSt4pairINSt7__cxx1112basic_stringIcSt11char_traitsIcESaIcEEES5_ED1Ev@Base 1.3.0~r864
 (optional=templinst|arch=!amd64)_ZNSt4pairINSt7__cxx1112basic_stringIcSt11char_traitsIcESaIcEEES5_ED2Ev@Base 1.3.0~r864
 (optional=templinst|arch=amd64)_ZNSt6vectorIN5boost13intrusive_ptrIN6kmldom15UpdateOperationEEESaIS4_EE17_M_realloc_insertIJRKS4_EEEvN9__gnu_cxx17__normal_iteratorIPS4_S6_EEDpOT_@Base 1.3.0
 (optional=templinst)_ZNSt6vectorIN5boost13intrusive_ptrIN6kmldom15UpdateOperationEEESaIS4_EE19_M_emplace_back_auxIJRKS4_EEEvDpOT_@Base 1.3.0
 (optional=templinst|arch=amd64)_ZNSt6vectorIN5boost13intrusive_ptrIN6kmldom4DataEEESaIS4_EE17_M_realloc_insertIJRKS4_EEEvN9__gnu_cxx17__normal_iteratorIPS4_S6_EEDpOT_@Base 1.3.0
 (optional=templinst)_ZNSt6vectorIN5boost13intrusive_ptrIN6kmldom4DataEEESaIS4_EE19_M_emplace_back_auxIJRKS4_EEEvDpOT_@Base 1.3.0
 (optional=templinst|arch=amd64)_ZNSt6vectorIN5boost13intrusive_ptrIN6kmldom6ObjectEEESaIS4_EE17_M_realloc_insertIJRKS4_EEEvN9__gnu_cxx17__normal_iteratorIPS4_S6_EEDpOT_@Base 1.3.0
 (optional=templinst)_ZNSt6vectorIN5boost13intrusive_ptrIN6kmldom6ObjectEEESaIS4_EE19_M_emplace_back_auxIJRKS4_EEEvDpOT_@Base 1.3.0
 (optional=templinst)_ZNSt6vectorIN7kmlbase4Vec3ESaIS1_EE12emplace_backIJS1_EEEvDpOT_@Base 1.3.0
 (optional=templinst|arch=amd64)_ZNSt6vectorIN7kmlbase4Vec3ESaIS1_EE17_M_realloc_insertIJRKS1_EEEvN9__gnu_cxx17__normal_iteratorIPS1_S3_EEDpOT_@Base 1.3.0
 (optional=templinst|arch=amd64)_ZNSt6vectorIN7kmlbase4Vec3ESaIS1_EE17_M_realloc_insertIJS1_EEEvN9__gnu_cxx17__normal_iteratorIPS1_S3_EEDpOT_@Base 1.3.0
 (optional=templinst)_ZNSt6vectorIN7kmlbase4Vec3ESaIS1_EE19_M_emplace_back_auxIJS1_EEEvDpOT_@Base 1.3.0
 (optional=templinst|arch=amd64)_ZNSt6vectorINSt7__cxx1112basic_stringIcSt11char_traitsIcESaIcEEESaIS5_EE17_M_realloc_insertIJRKS5_EEEvN9__gnu_cxx17__normal_iteratorIPS5_S7_EEDpOT_@Base 1.3.0
 (optional=templinst)_ZNSt6vectorINSt7__cxx1112basic_stringIcSt11char_traitsIcESaIcEEESaIS5_EE19_M_emplace_back_auxIJRKS5_EEEvDpOT_@Base 1.3.0
 (optional=templinst)_ZNSt6vectorINSt7__cxx1112basic_stringIcSt11char_traitsIcESaIcEEESaIS5_EED1Ev@Base 1.3.0~r864
 (optional=templinst)_ZNSt6vectorINSt7__cxx1112basic_stringIcSt11char_traitsIcESaIcEEESaIS5_EED2Ev@Base 1.3.0~r864
 (optional=templinst|arch=amd64)_ZNSt6vectorISt4pairINSt7__cxx1112basic_stringIcSt11char_traitsIcESaIcEEES6_ESaIS7_EE17_M_realloc_insertIJRKS7_EEEvN9__gnu_cxx17__normal_iteratorIPS7_S9_EEDpOT_@Base 1.3.0
 (optional=templinst|arch=amd64)_ZNSt6vectorISt4pairINSt7__cxx1112basic_stringIcSt11char_traitsIcESaIcEEES6_ESaIS7_EE17_M_realloc_insertIJS7_EEEvN9__gnu_cxx17__normal_iteratorIPS7_S9_EEDpOT_@Base 1.3.0
 (optional=templinst)_ZNSt6vectorISt4pairINSt7__cxx1112basic_stringIcSt11char_traitsIcESaIcEEES6_ESaIS7_EE19_M_emplace_back_auxIJRKS7_EEEvDpOT_@Base 1.3.0
 (optional=templinst)_ZNSt6vectorISt4pairINSt7__cxx1112basic_stringIcSt11char_traitsIcESaIcEEES6_ESaIS7_EE19_M_emplace_back_auxIJS7_EEEvDpOT_@Base 1.3.0
 (optional=templinst)_ZNSt6vectorISt4pairINSt7__cxx1112basic_stringIcSt11char_traitsIcESaIcEEES6_ESaIS7_EED1Ev@Base 1.3.0~r864
 (optional=templinst)_ZNSt6vectorISt4pairINSt7__cxx1112basic_stringIcSt11char_traitsIcESaIcEEES6_ESaIS7_EED2Ev@Base 1.3.0~r864
 (optional=templinst)_ZNSt7__cxx1110_List_baseIN5boost13intrusive_ptrIN6kmldom7FeatureEEESaIS5_EE8_M_clearEv@Base 1.3.0~r864
 (optional=templinst|arch=amd64)_ZNSt7__cxx1112basic_stringIcSt11char_traitsIcESaIcEE12_M_constructIPKcEEvT_S8_St20forward_iterator_tag@Base 1.3.0
 (optional=templinst|arch=amd64)_ZNSt7__cxx1112basic_stringIcSt11char_traitsIcESaIcEE12_M_constructIPcEEvT_S7_St20forward_iterator_tag@Base 1.3.0
 (optional=templinst|arch=!amd64)_ZNSt7__cxx1115basic_stringbufIcSt11char_traitsIcESaIcEED0Ev@Base 1.3.0~r864
 (optional=templinst|arch=!amd64)_ZNSt7__cxx1115basic_stringbufIcSt11char_traitsIcESaIcEED1Ev@Base 1.3.0~r864
 (optional=templinst|arch=!amd64)_ZNSt7__cxx1115basic_stringbufIcSt11char_traitsIcESaIcEED2Ev@Base 1.3.0~r864
 (optional=templinst|arch=!amd64)_ZNSt7__cxx114listIN5boost13intrusive_ptrIN6kmldom7FeatureEEESaIS5_EE4sortIN14kmlconvenience15CompareFeaturesEEEvT_@Base 1.3.0~r864
 (optional=templinst)_ZNSt7__cxx114listIN5boost13intrusive_ptrIN6kmldom7FeatureEEESaIS5_EE5mergeIN14kmlconvenience15CompareFeaturesEEEvOS7_T_@Base 1.3.0
 (optional=templinst|arch=!amd64)_ZNSt8_Rb_treeINSt7__cxx1112basic_stringIcSt11char_traitsIcESaIcEEESt4pairIKS5_S5_ESt10_Select1stIS8_ESt4lessIS5_ESaIS8_EE8_M_eraseEPSt13_Rb_tree_nodeIS8_E@Base 1.3.0~r864
 (optional=templinst)_ZNSt8_Rb_treeIiSt4pairIKiNSt7__cxx1112basic_stringIcSt11char_traitsIcESaIcEEEESt10_Select1stIS8_ESt4lessIiESaIS8_EE24_M_get_insert_unique_posERS1_@Base 1.3.0~r864
 (optional=templinst|arch=amd64 arm64 hppa kfreebsd-amd64 m68k mips64el ppc64el sh4 sparc64 x32)_ZNSt8_Rb_treeIiSt4pairIKiNSt7__cxx1112basic_stringIcSt11char_traitsIcESaIcEEEESt10_Select1stIS8_ESt4lessIiESaIS8_EE29_M_get_insert_hint_unique_posESt23_Rb_tree_const_iteratorIS8_ERS1_@Base 1.3.0~r864
 (optional=templinst|arch=!amd64)_ZNSt8_Rb_treeIiSt4pairIKiNSt7__cxx1112basic_stringIcSt11char_traitsIcESaIcEEEESt10_Select1stIS8_ESt4lessIiESaIS8_EE8_M_eraseEPSt13_Rb_tree_nodeIS8_E@Base 1.3.0~r864
 _ZTVN14kmlconvenience10HttpClientE@Base 1.3.0~r864
